	.file	"slab.c"
	.intel_syntax noprefix
	.text
.Ltext0:
	.p2align 4,,15
	.type	calc_slab_size, @function
calc_slab_size:
.LFB74:
	.file 1 "slab.c"
	.loc 1 140 0
	.cfi_startproc
.LVL0:
	.loc 1 146 0
	test	BYTE PTR [rdi+48], 1
	jne	.L2
.LVL1:
	.loc 1 150 0
	mov	rax, QWORD PTR [rdi+120]
	xor	edx, edx
	lea	rsi, [rax+8]
	mov	eax, 2097104
	div	rsi
	mov	rcx, rax
	mov	r9d, eax
.LVL2:
	.loc 1 166 0
	mov	eax, 1
	.loc 1 164 0
	test	ecx, ecx
	je	.L3
	.loc 1 148 0
	mov	ecx, 2097152
.LVL3:
.L4:
	.loc 1 169 0
	mov	DWORD PTR [rdi+24], ecx
	.loc 1 170 0
	mov	DWORD PTR [rdi+128], r9d
	.loc 1 172 0
	xor	eax, eax
	ret
.LVL4:
	.p2align 4,,10
	.p2align 3
.L2:
	mov	r8, QWORD PTR [rdi+120]
	.loc 1 146 0
	mov	esi, 3
	mov	ecx, 4194304
	.p2align 4,,10
	.p2align 3
.L5:
.LVL5:
	.loc 1 155 0
	xor	edx, edx
	mov	eax, ecx
	div	r8
	.loc 1 157 0
	test	eax, eax
	.loc 1 155 0
	mov	r9d, eax
.LVL6:
	.loc 1 157 0
	jne	.L4
	.loc 1 153 0
	add	ecx, ecx
.LVL7:
	sub	esi, 1
	jne	.L5
	.loc 1 166 0
	mov	eax, 1
.LVL8:
.L3:
	.loc 1 173 0
	rep ret
	.cfi_endproc
.LFE74:
	.size	calc_slab_size, .-calc_slab_size
	.p2align 4,,15
	.type	kmem_cache_reap.isra.11, @function
kmem_cache_reap.isra.11:
.LFB109:
	.loc 1 641 0
	.cfi_startproc
.LVL9:
	push	rbp
	.cfi_def_cfa_offset 16
	.cfi_offset 6, -16
	mov	rbp, rdi
	push	rbx
	.cfi_def_cfa_offset 24
	.cfi_offset 3, -24
	sub	rsp, 8
	.cfi_def_cfa_offset 32
	.loc 1 646 0
	mov	rbx, QWORD PTR [rdi+8]
.LVL10:
	cmp	rdi, rbx
	jne	.L10
	jmp	.L15
.LVL11:
	.p2align 4,,10
	.p2align 3
.L13:
	.loc 1 658 0
	mov	rdi, rbx
	call	free_kernel_memory
.LVL12:
	.loc 1 646 0
	mov	rbx, QWORD PTR [rbx+8]
.LVL13:
	cmp	rbp, rbx
	je	.L15
.LVL14:
.L10:
	.loc 1 651 0
	mov	eax, DWORD PTR [rbx+32]
	test	eax, eax
	je	.L13
	.loc 1 667 0
	add	rsp, 8
	.cfi_remember_state
	.cfi_def_cfa_offset 24
	.loc 1 653 0
	mov	eax, 1
	.loc 1 667 0
	pop	rbx
	.cfi_def_cfa_offset 16
.LVL15:
	pop	rbp
	.cfi_def_cfa_offset 8
.LVL16:
	ret
.LVL17:
	.p2align 4,,10
	.p2align 3
.L15:
	.cfi_restore_state
	add	rsp, 8
	.cfi_def_cfa_offset 24
	.loc 1 666 0
	xor	eax, eax
	.loc 1 667 0
	pop	rbx
	.cfi_def_cfa_offset 16
.LVL18:
	pop	rbp
	.cfi_def_cfa_offset 8
.LVL19:
	ret
	.cfi_endproc
.LFE109:
	.size	kmem_cache_reap.isra.11, .-kmem_cache_reap.isra.11
	.p2align 4,,15
	.globl	free
	.type	free, @function
free:
.LFB73:
	.loc 1 131 0
	.cfi_startproc
.LVL20:
	rep ret
	.cfi_endproc
.LFE73:
	.size	free, .-free
	.p2align 4,,15
	.globl	alloc_free_object
	.type	alloc_free_object, @function
alloc_free_object:
.LFB86:
	.loc 1 348 0
	.cfi_startproc
.LVL21:
	.loc 1 353 0
	mov	rax, QWORD PTR [rsi+40]
	cmp	rax, -1
	je	.L20
.LVL22:
	.loc 1 357 0
	lea	rdx, [rsi+48+rax*8]
.LBB200:
.LBB201:
	.loc 1 344 0
	mov	eax, eax
.LVL23:
.LBE201:
.LBE200:
	.loc 1 357 0
	mov	rcx, QWORD PTR [rdx]
	mov	QWORD PTR [rsi+40], rcx
.LVL24:
	.loc 1 358 0
	mov	QWORD PTR [rdx], -2
.LBB204:
.LBB202:
	.loc 1 344 0
	imul	rax, QWORD PTR [rdi+120]
.LBE202:
.LBE204:
	.loc 1 359 0
	add	DWORD PTR [rsi+32], 1
.LVL25:
.LBB205:
.LBB203:
	.loc 1 344 0
	add	rax, QWORD PTR [rsi+24]
.LBE203:
.LBE205:
	.loc 1 361 0
	ret
.LVL26:
	.p2align 4,,10
	.p2align 3
.L20:
	.loc 1 364 0
	xor	eax, eax
	.loc 1 365 0
	ret
	.cfi_endproc
.LFE86:
	.size	alloc_free_object, .-alloc_free_object
	.section	.rodata.str1.1,"aMS",@progbits,1
.LC0:
	.string	"kmem_cache_alloc#allocated1\n"
	.section	.rodata.str1.8,"aMS",@progbits,1
	.align 8
.LC1:
	.string	"kmem_cache_alloc#allocated2 %p\n"
	.section	.rodata.str1.1
.LC2:
	.string	"kmem_cache_alloc#error\n"
	.text
	.p2align 4,,15
	.globl	kmem_cache_alloc
	.type	kmem_cache_alloc, @function
kmem_cache_alloc:
.LFB87:
	.loc 1 368 0
	.cfi_startproc
.LVL27:
	push	rbp
	.cfi_def_cfa_offset 16
	.cfi_offset 6, -16
	.loc 1 375 0
	lea	rbp, [rdi+64]
.LVL28:
	.loc 1 368 0
	push	rbx
	.cfi_def_cfa_offset 24
	.cfi_offset 3, -24
	mov	rbx, rdi
	sub	rsp, 8
	.cfi_def_cfa_offset 32
.LBB206:
.LBB207:
	.file 2 "../include/list.h"
	.loc 2 124 0
	mov	rdx, QWORD PTR [rdi+72]
.LBE207:
.LBE206:
	.loc 1 375 0
	cmp	rbp, rdx
	je	.L22
.LVL29:
.LBB208:
.LBB209:
	.loc 1 353 0
	mov	rax, QWORD PTR [rdx+40]
	cmp	rax, -1
	je	.L23
.LVL30:
	.loc 1 357 0
	lea	rcx, [rdx+48+rax*8]
.LBB210:
.LBB211:
	.loc 1 344 0
	mov	eax, eax
.LVL31:
.LBE211:
.LBE210:
	.loc 1 359 0
	mov	edi, DWORD PTR [rdx+32]
.LVL32:
	.loc 1 357 0
	mov	rsi, QWORD PTR [rcx]
.LVL33:
	mov	QWORD PTR [rdx+40], rsi
.LVL34:
	.loc 1 358 0
	mov	QWORD PTR [rcx], -2
	.loc 1 359 0
	lea	ecx, [rdi+1]
.LBB213:
.LBB212:
	.loc 1 344 0
	imul	rax, QWORD PTR [rbx+120]
.LBE212:
.LBE213:
	.loc 1 359 0
	mov	DWORD PTR [rdx+32], ecx
.LVL35:
.LBE209:
.LBE208:
	.loc 1 381 0
	add	rax, QWORD PTR [rdx+24]
	je	.L23
	.loc 1 382 0
	cmp	DWORD PTR [rbx+128], ecx
	ja	.L24
.LVL36:
.LBB214:
.LBB215:
.LBB216:
	.loc 2 71 0
	mov	rcx, QWORD PTR [rdx]
.LVL37:
	mov	rsi, QWORD PTR [rdx+8]
.LVL38:
.LBB217:
.LBB218:
	.loc 2 66 0
	mov	QWORD PTR [rsi], rcx
	.loc 2 67 0
	mov	QWORD PTR [rcx+8], rsi
.LVL39:
.LBE218:
.LBE217:
.LBE216:
.LBE215:
.LBB219:
.LBB220:
	.loc 2 54 0
	mov	rcx, QWORD PTR [rbx+88]
.LVL40:
.LBB221:
.LBB222:
	.loc 2 47 0
	mov	QWORD PTR [rcx], rdx
.LVL41:
	.loc 2 48 0
	mov	QWORD PTR [rdx+8], rcx
.LBE222:
.LBE221:
.LBE220:
.LBE219:
.LBE214:
	.loc 1 383 0
	lea	rcx, [rbx+80]
.LVL42:
	mov	QWORD PTR [rdx], rcx
.LBB227:
.LBB226:
.LBB225:
.LBB224:
.LBB223:
	.loc 2 50 0
	mov	QWORD PTR [rbx+88], rdx
.LVL43:
.L24:
.LBE223:
.LBE224:
.LBE225:
.LBE226:
.LBE227:
	.loc 1 422 0
	add	rsp, 8
	.cfi_remember_state
	.cfi_def_cfa_offset 24
	pop	rbx
	.cfi_def_cfa_offset 16
.LVL44:
	pop	rbp
	.cfi_def_cfa_offset 8
.LVL45:
	ret
.LVL46:
	.p2align 4,,10
	.p2align 3
.L23:
	.cfi_restore_state
	.loc 1 387 0
	mov	edi, OFFSET FLAT:.LC0
	xor	eax, eax
	call	kprintf
.LVL47:
	.loc 1 422 0
	add	rsp, 8
	.cfi_remember_state
	.cfi_def_cfa_offset 24
	.loc 1 387 0
	xor	eax, eax
	.loc 1 422 0
	pop	rbx
	.cfi_def_cfa_offset 16
.LVL48:
	pop	rbp
	.cfi_def_cfa_offset 8
.LVL49:
	ret
.LVL50:
	.p2align 4,,10
	.p2align 3
.L22:
	.cfi_restore_state
.LBB228:
.LBB229:
	.loc 2 124 0
	mov	rdx, QWORD PTR [rdi+104]
.LBE229:
.LBE228:
	.loc 1 393 0
	lea	rax, [rdi+96]
.LVL51:
	cmp	rdx, rax
	je	.L41
.LVL52:
.L25:
.LBB230:
.LBB231:
	.loc 1 353 0
	mov	rax, QWORD PTR [rdx+40]
	cmp	rax, -1
	je	.L27
.LVL53:
	.loc 1 357 0
	lea	rcx, [rdx+48+rax*8]
.LBB232:
.LBB233:
	.loc 1 344 0
	mov	eax, eax
.LVL54:
.LBE233:
.LBE232:
	.loc 1 357 0
	mov	rsi, QWORD PTR [rcx]
	mov	QWORD PTR [rdx+40], rsi
.LVL55:
	.loc 1 358 0
	mov	QWORD PTR [rcx], -2
.LBB235:
.LBB234:
	.loc 1 344 0
	imul	rax, QWORD PTR [rbx+120]
.LBE234:
.LBE235:
	.loc 1 359 0
	add	DWORD PTR [rdx+32], 1
.LVL56:
.LBE231:
.LBE230:
	.loc 1 404 0
	add	rax, QWORD PTR [rdx+24]
	je	.L27
.LVL57:
.LBB236:
.LBB237:
.LBB238:
	.loc 2 71 0
	mov	rcx, QWORD PTR [rdx]
.LVL58:
	mov	rsi, QWORD PTR [rdx+8]
.LVL59:
.LBB239:
.LBB240:
	.loc 2 66 0
	mov	QWORD PTR [rsi], rcx
	.loc 2 67 0
	mov	QWORD PTR [rcx+8], rsi
.LVL60:
.LBE240:
.LBE239:
.LBE238:
.LBE237:
.LBB241:
.LBB242:
	.loc 2 54 0
	mov	rcx, QWORD PTR [rbx+72]
.LVL61:
.LBB243:
.LBB244:
	.loc 2 47 0
	mov	QWORD PTR [rcx], rdx
.LVL62:
	.loc 2 48 0
	mov	QWORD PTR [rdx+8], rcx
	.loc 2 49 0
	mov	QWORD PTR [rdx], rbp
	.loc 2 50 0
	mov	QWORD PTR [rbx+72], rdx
.LBE244:
.LBE243:
.LBE242:
.LBE241:
.LBE236:
	.loc 1 422 0
	add	rsp, 8
	.cfi_remember_state
	.cfi_def_cfa_offset 24
	pop	rbx
	.cfi_def_cfa_offset 16
.LVL63:
	pop	rbp
	.cfi_def_cfa_offset 8
.LVL64:
	ret
.LVL65:
	.p2align 4,,10
	.p2align 3
.L27:
	.cfi_restore_state
	.loc 1 409 0
	xor	esi, esi
	mov	edi, OFFSET FLAT:.LC1
	xor	eax, eax
	call	kprintf
.LVL66:
	xor	eax, eax
	jmp	.L24
.LVL67:
	.p2align 4,,10
	.p2align 3
.L41:
	.loc 1 395 0
	call	kmem_cache_grow.isra.9
.LVL68:
	.loc 1 399 0
	test	eax, eax
	.p2align 4,,4
	je	.L42
	.loc 1 415 0
	mov	edi, OFFSET FLAT:.LC2
	xor	eax, eax
.LVL69:
	call	kprintf
.LVL70:
	.loc 1 417 0
	xor	eax, eax
	jmp	.L24
.LVL71:
.L42:
	mov	rdx, QWORD PTR [rbx+104]
	jmp	.L25
	.cfi_endproc
.LFE87:
	.size	kmem_cache_alloc, .-kmem_cache_alloc
	.section	.rodata.str1.8
	.align 8
.LC3:
	.string	"[kmalloc] can not allocate memory size %X\n"
	.text
	.p2align 4,,15
	.globl	kmalloc
	.type	kmalloc, @function
kmalloc:
.LFB71:
	.loc 1 56 0
	.cfi_startproc
.LVL72:
	push	r13
	.cfi_def_cfa_offset 16
	.cfi_offset 13, -16
	mov	r13d, esi
	push	r12
	.cfi_def_cfa_offset 24
	.cfi_offset 12, -24
	mov	r12, rdi
	push	rbp
	.cfi_def_cfa_offset 32
	.cfi_offset 6, -32
	mov	ebp, OFFSET FLAT:kmalloc_cache
	push	rbx
	.cfi_def_cfa_offset 40
	.cfi_offset 3, -40
	mov	ebx, OFFSET FLAT:initial_cache
	sub	rsp, 8
	.cfi_def_cfa_offset 48
.LVL73:
.L49:
	.loc 1 63 0
	cmp	QWORD PTR [rbx], r12
	jae	.L44
.L47:
	add	rbx, 24
	add	rbp, 152
	.loc 1 61 0
	cmp	rbx, OFFSET FLAT:initial_cache+408
	jne	.L49
	.loc 1 76 0
	mov	rsi, r12
	mov	edi, OFFSET FLAT:.LC3
	xor	eax, eax
	call	kprintf
.LVL74:
	.loc 1 78 0
	add	rsp, 8
	.cfi_remember_state
	.cfi_def_cfa_offset 40
	.loc 1 77 0
	xor	eax, eax
	.loc 1 78 0
	pop	rbx
	.cfi_def_cfa_offset 32
	pop	rbp
	.cfi_def_cfa_offset 24
	pop	r12
	.cfi_def_cfa_offset 16
.LVL75:
	pop	r13
	.cfi_def_cfa_offset 8
.LVL76:
	ret
.LVL77:
	.p2align 4,,10
	.p2align 3
.L44:
	.cfi_restore_state
	.loc 1 65 0
	mov	esi, r13d
	mov	rdi, rbp
	call	kmem_cache_alloc
.LVL78:
	.loc 1 67 0
	test	rax, rax
	je	.L47
	.loc 1 78 0
	add	rsp, 8
	.cfi_def_cfa_offset 40
	pop	rbx
	.cfi_def_cfa_offset 32
	pop	rbp
	.cfi_def_cfa_offset 24
	pop	r12
	.cfi_def_cfa_offset 16
.LVL79:
	pop	r13
	.cfi_def_cfa_offset 8
.LVL80:
	ret
	.cfi_endproc
.LFE71:
	.size	kmalloc, .-kmalloc
	.section	.rodata.str1.8
	.align 8
.LC4:
	.string	"error! kmem_cache_grow#off_slab\n"
	.align 8
.LC5:
	.string	"error! kmem_cache_grow#on_slab\n"
	.text
	.p2align 4,,15
	.type	kmem_cache_grow.isra.9, @function
kmem_cache_grow.isra.9:
.LFB107:
	.loc 1 588 0
	.cfi_startproc
.LVL81:
	push	r12
	.cfi_def_cfa_offset 16
	.cfi_offset 12, -16
	push	rbp
	.cfi_def_cfa_offset 24
	.cfi_offset 6, -24
	push	rbx
	.cfi_def_cfa_offset 32
	.cfi_offset 3, -32
	.loc 1 597 0
	test	BYTE PTR [rdi+48], 1
	.loc 1 588 0
	mov	rbx, rdi
	.loc 1 597 0
	je	.L56
	.loc 1 599 0
	mov	eax, DWORD PTR [rdi+128]
	xor	esi, esi
	lea	rdi, [48+rax*8]
.LVL82:
	call	kmalloc
.LVL83:
	.loc 1 601 0
	test	rax, rax
	.loc 1 599 0
	mov	r12, rax
.LVL84:
	.loc 1 601 0
	je	.L71
	.loc 1 606 0
	mov	edi, DWORD PTR [rbx+24]
	call	alloc_kernel_memory
.LVL85:
	lea	rcx, [r12+48]
	jmp	.L59
.LVL86:
	.p2align 4,,10
	.p2align 3
.L56:
	.loc 1 609 0
	mov	edi, DWORD PTR [rdi+24]
	call	alloc_kernel_memory
.LVL87:
	.loc 1 611 0
	test	rax, rax
	.loc 1 609 0
	mov	r12, rax
.LVL88:
	.loc 1 611 0
	je	.L72
.LVL89:
	.loc 1 616 0
	lea	rcx, [rax+48]
	.loc 1 618 0
	mov	eax, DWORD PTR [rbx+128]
.LVL90:
	lea	rax, [rcx+rax*8]
.LVL91:
.L59:
.LBB245:
.LBB246:
.LBB247:
.LBB248:
	.loc 2 40 0
	mov	QWORD PTR [r12+8], r12
	.loc 2 41 0
	mov	QWORD PTR [r12], r12
.LBE248:
.LBE247:
.LBE246:
.LBE245:
	.loc 1 588 0
	mov	esi, DWORD PTR [rbx+128]
.LVL92:
.LBB250:
.LBB249:
	.loc 1 567 0
	mov	QWORD PTR [r12+24], rax
	.loc 1 568 0
	mov	DWORD PTR [r12+32], 0
.LBE249:
.LBE250:
.LBB251:
.LBB252:
	.loc 1 575 0
	mov	edi, esi
	sub	edi, 1
	je	.L64
	lea	eax, [rsi-2]
.LVL93:
	mov	edx, 1
	add	rax, 2
.LVL94:
	.p2align 4,,10
	.p2align 3
.L65:
	.loc 1 577 0
	mov	QWORD PTR [rcx-8+rdx*8], rdx
.LVL95:
	add	rdx, 1
.LVL96:
	.loc 1 575 0
	cmp	rdx, rax
	jne	.L65
.L64:
.LBE252:
.LBE251:
.LBB254:
.LBB255:
	.loc 2 60 0
	mov	rax, QWORD PTR [rbx+96]
.LBE255:
.LBE254:
	.loc 1 625 0
	lea	rdx, [rbx+96]
.LBB262:
.LBB253:
	.loc 1 580 0
	mov	edi, edi
	mov	QWORD PTR [rcx+rdi*8], -1
	.loc 1 582 0
	mov	QWORD PTR [r12+40], 0
.LVL97:
.LBE253:
.LBE262:
.LBB263:
.LBB260:
.LBB256:
.LBB257:
	.loc 2 47 0
	mov	QWORD PTR [rbx+96], r12
.LBE257:
.LBE256:
.LBE260:
.LBE263:
	.loc 1 625 0
	mov	QWORD PTR [r12+8], rdx
.LBB264:
.LBB261:
.LBB259:
.LBB258:
	.loc 2 49 0
	mov	QWORD PTR [r12], rax
	.loc 2 50 0
	mov	QWORD PTR [rax+8], r12
.LBE258:
.LBE259:
.LBE261:
.LBE264:
	.loc 1 627 0
	add	DWORD PTR [rbx+132], esi
	.loc 1 629 0
	cmp	QWORD PTR [rbx+56], 0
	je	.L63
.LVL98:
	.loc 1 631 0
	test	esi, esi
	je	.L63
	xor	ebp, ebp
	xor	edx, edx
.LVL99:
	.p2align 4,,10
	.p2align 3
.L66:
.LBB265:
.LBB266:
	.loc 1 344 0
	mov	edi, edx
.LBE266:
.LBE265:
	.loc 1 631 0
	add	ebp, 1
.LVL100:
.LBB268:
.LBB267:
	.loc 1 344 0
	imul	rdi, QWORD PTR [rbx+120]
	add	rdi, QWORD PTR [r12+24]
.LBE267:
.LBE268:
	.loc 1 634 0
	call	[QWORD PTR [rbx+56]]
.LVL101:
	.loc 1 631 0
	cmp	ebp, DWORD PTR [rbx+128]
	mov	edx, ebp
	jb	.L66
.LVL102:
.L63:
	.loc 1 638 0
	xor	eax, eax
.LVL103:
.L58:
	.loc 1 639 0
	pop	rbx
	.cfi_remember_state
	.cfi_def_cfa_offset 24
.LVL104:
	pop	rbp
	.cfi_def_cfa_offset 16
	pop	r12
	.cfi_def_cfa_offset 8
.LVL105:
	ret
.LVL106:
.L71:
	.cfi_restore_state
	.loc 1 602 0
	mov	edi, OFFSET FLAT:.LC4
	xor	eax, eax
.LVL107:
	call	kprintf
.LVL108:
	.loc 1 603 0
	mov	eax, 1
	jmp	.L58
.LVL109:
.L72:
	.loc 1 612 0
	mov	edi, OFFSET FLAT:.LC5
	xor	eax, eax
.LVL110:
	call	kprintf
.LVL111:
	.loc 1 613 0
	mov	eax, 1
	jmp	.L58
	.cfi_endproc
.LFE107:
	.size	kmem_cache_grow.isra.9, .-kmem_cache_grow.isra.9
	.section	.rodata.str1.1
.LC6:
	.string	"error! init_kmem_cache!!\n"
	.text
	.p2align 4,,15
	.type	setup_initial_cache, @function
setup_initial_cache:
.LFB76:
	.loc 1 219 0
	.cfi_startproc
.LVL112:
	push	r12
	.cfi_def_cfa_offset 16
	.cfi_offset 12, -16
.LBB285:
.LBB286:
	.loc 1 194 0
	cmp	rdx, 524287
.LBE286:
.LBE285:
	.loc 1 219 0
	push	rbp
	.cfi_def_cfa_offset 24
	.cfi_offset 6, -24
.LBB300:
.LBB295:
	.loc 1 186 0
	lea	rbp, [rdi+8]
.LBE295:
.LBE300:
	.loc 1 219 0
	push	rbx
	.cfi_def_cfa_offset 32
	.cfi_offset 3, -32
	.loc 1 219 0
	mov	rbx, rdi
.LVL113:
.LBB301:
.LBB296:
.LBB287:
.LBB288:
	.loc 2 40 0
	mov	QWORD PTR [rdi+16], rbp
	.loc 2 41 0
	mov	QWORD PTR [rdi+8], rbp
.LBE288:
.LBE287:
	.loc 1 187 0
	mov	QWORD PTR [rdi], rsi
	.loc 1 190 0
	mov	QWORD PTR [rdi+120], rdx
	.loc 1 191 0
	mov	DWORD PTR [rdi+132], 0
	.loc 1 194 0
	jbe	.L74
	.loc 1 196 0
	or	DWORD PTR [rdi+48], 1
.L74:
	.loc 1 199 0
	mov	rdi, rbx
.LVL114:
	call	calc_slab_size
.LVL115:
	.loc 1 201 0
	test	eax, eax
	.loc 1 199 0
	mov	r12d, eax
.LVL116:
	.loc 1 201 0
	jne	.L79
	.loc 1 209 0
	lea	rax, [rbx+64]
.LVL117:
	.loc 1 207 0
	mov	QWORD PTR [rbx+56], 0
.LBE296:
.LBE301:
	.loc 1 230 0
	mov	rdi, rbx
.LBB302:
.LBB297:
.LBB289:
.LBB290:
	.loc 2 40 0
	mov	QWORD PTR [rbx+72], rax
	.loc 2 41 0
	mov	QWORD PTR [rbx+64], rax
.LBE290:
.LBE289:
	.loc 1 210 0
	lea	rax, [rbx+80]
.LVL118:
.LBB291:
.LBB292:
	.loc 2 40 0
	mov	QWORD PTR [rbx+88], rax
	.loc 2 41 0
	mov	QWORD PTR [rbx+80], rax
.LBE292:
.LBE291:
	.loc 1 211 0
	lea	rax, [rbx+96]
.LVL119:
.LBB293:
.LBB294:
	.loc 2 40 0
	mov	QWORD PTR [rbx+104], rax
	.loc 2 41 0
	mov	QWORD PTR [rbx+96], rax
.LBE294:
.LBE293:
.LBE297:
.LBE302:
	.loc 1 230 0
	call	calc_slab_size
.LVL120:
	.loc 1 232 0
	test	eax, eax
	je	.L80
	.loc 1 245 0
	pop	rbx
	.cfi_remember_state
	.cfi_def_cfa_offset 24
.LVL121:
	pop	rbp
	.cfi_def_cfa_offset 16
.LVL122:
	pop	r12
	.cfi_def_cfa_offset 8
.LVL123:
	ret
.LVL124:
	.p2align 4,,10
	.p2align 3
.L79:
	.cfi_restore_state
.LBB303:
.LBB298:
	.loc 1 202 0
	mov	edi, OFFSET FLAT:.LC6
	xor	eax, eax
.LVL125:
	call	kprintf
.LVL126:
.LBE298:
.LBE303:
	.loc 1 245 0
	pop	rbx
	.cfi_remember_state
	.cfi_def_cfa_offset 24
.LVL127:
	pop	rbp
	.cfi_def_cfa_offset 16
.LVL128:
.LBB304:
.LBB299:
	.loc 1 202 0
	mov	eax, r12d
.LBE299:
.LBE304:
	.loc 1 245 0
	pop	r12
	.cfi_def_cfa_offset 8
.LVL129:
	ret
.LVL130:
	.p2align 4,,10
	.p2align 3
.L80:
	.cfi_restore_state
.LBB305:
.LBB306:
.LBB307:
.LBB308:
	.loc 2 60 0
	mov	rax, QWORD PTR list_cache[rip]
.LVL131:
.LBB309:
.LBB310:
	.loc 2 48 0
	mov	QWORD PTR [rbx+16], OFFSET FLAT:list_cache
.LBE310:
.LBE309:
.LBE308:
.LBE307:
	.loc 1 241 0
	mov	rdi, rbx
.LBB314:
.LBB313:
.LBB312:
.LBB311:
	.loc 2 47 0
	mov	QWORD PTR list_cache[rip], rbp
	.loc 2 49 0
	mov	QWORD PTR [rbx+8], rax
	.loc 2 50 0
	mov	QWORD PTR [rax+8], rbp
.LVL132:
.LBE311:
.LBE312:
.LBE313:
.LBE314:
.LBE306:
.LBE305:
	.loc 1 245 0
	pop	rbx
	.cfi_def_cfa_offset 24
.LVL133:
	pop	rbp
	.cfi_def_cfa_offset 16
.LVL134:
	pop	r12
	.cfi_def_cfa_offset 8
.LVL135:
.LBB316:
.LBB315:
	.loc 1 241 0
	jmp	kmem_cache_grow.isra.9
.LVL136:
.LBE315:
.LBE316:
	.cfi_endproc
.LFE76:
	.size	setup_initial_cache, .-setup_initial_cache
	.p2align 4,,15
	.globl	init_slaballocator
	.type	init_slaballocator, @function
init_slaballocator:
.LFB77:
	.loc 1 248 0
	.cfi_startproc
.LVL137:
	push	rbp
	.cfi_def_cfa_offset 16
	.cfi_offset 6, -16
	mov	ebp, OFFSET FLAT:kmalloc_cache
	push	rbx
	.cfi_def_cfa_offset 24
	.cfi_offset 3, -24
	mov	ebx, OFFSET FLAT:initial_cache+8
	sub	rsp, 8
	.cfi_def_cfa_offset 32
.LBB317:
.LBB318:
	.loc 2 40 0
	mov	QWORD PTR list_cache[rip+8], OFFSET FLAT:list_cache
	.loc 2 41 0
	mov	QWORD PTR list_cache[rip], OFFSET FLAT:list_cache
.LVL138:
	.p2align 4,,10
	.p2align 3
.L84:
.LBE318:
.LBE317:
	.loc 1 257 0
	mov	rdx, QWORD PTR [rbx-8]
	mov	rsi, rbx
	mov	rdi, rbp
	call	setup_initial_cache
.LVL139:
	.loc 1 259 0
	test	eax, eax
	jne	.L82
	add	rbp, 152
	add	rbx, 24
	.loc 1 255 0
	cmp	rbp, OFFSET FLAT:kmalloc_cache+2584
	jne	.L84
	.loc 1 268 0
	add	rsp, 8
	.cfi_remember_state
	.cfi_def_cfa_offset 24
	.loc 1 265 0
	mov	edx, 152
	mov	esi, OFFSET FLAT:kmem_cache_name
	.loc 1 268 0
	pop	rbx
	.cfi_def_cfa_offset 16
	pop	rbp
	.cfi_def_cfa_offset 8
	.loc 1 265 0
	mov	edi, OFFSET FLAT:kmem_cache_cache
	jmp	setup_initial_cache
.LVL140:
	.p2align 4,,10
	.p2align 3
.L82:
	.cfi_restore_state
	.loc 1 268 0
	add	rsp, 8
	.cfi_def_cfa_offset 24
	pop	rbx
	.cfi_def_cfa_offset 16
	pop	rbp
	.cfi_def_cfa_offset 8
	ret
	.cfi_endproc
.LFE77:
	.size	init_slaballocator, .-init_slaballocator
	.p2align 4,,15
	.globl	kmem_cache_free
	.type	kmem_cache_free, @function
kmem_cache_free:
.LFB92:
	.loc 1 471 0
	.cfi_startproc
.LVL141:
	.loc 1 516 0
	mov	rcx, rsi
	and	rcx, -2097152
.LVL142:
	je	.L86
.LVL143:
.LBB319:
.LBB320:
	.loc 1 464 0
	mov	rax, rsi
	sub	rax, QWORD PTR [rcx+24]
.LVL144:
	.loc 1 466 0
	xor	edx, edx
	div	QWORD PTR [rdi+120]
.LVL145:
.LBE320:
.LBE319:
	.loc 1 522 0
	mov	eax, eax
.LVL146:
	lea	rdx, [rcx+48+rax*8]
	cmp	QWORD PTR [rdx], -2
	je	.L90
.LVL147:
.L86:
	rep ret
.LVL148:
	.p2align 4,,10
	.p2align 3
.L90:
	.loc 1 524 0
	mov	rsi, QWORD PTR [rcx+40]
.LVL149:
	mov	QWORD PTR [rdx], rsi
.LVL150:
	.loc 1 529 0
	sub	DWORD PTR [rcx+32], 1
	.loc 1 526 0
	mov	QWORD PTR [rcx+40], rax
	.loc 1 529 0
	jne	.L86
.LVL151:
.LBB321:
.LBB322:
.LBB323:
	.loc 2 71 0
	mov	rax, QWORD PTR [rcx]
.LVL152:
	mov	rdx, QWORD PTR [rcx+8]
.LVL153:
.LBB324:
.LBB325:
	.loc 2 66 0
	mov	QWORD PTR [rdx], rax
	.loc 2 67 0
	mov	QWORD PTR [rax+8], rdx
.LVL154:
.LBE325:
.LBE324:
.LBE323:
.LBE322:
.LBB326:
.LBB327:
	.loc 2 54 0
	mov	rax, QWORD PTR [rdi+104]
.LVL155:
.LBB328:
.LBB329:
	.loc 2 47 0
	mov	QWORD PTR [rax], rcx
.LVL156:
	.loc 2 48 0
	mov	QWORD PTR [rcx+8], rax
.LBE329:
.LBE328:
.LBE327:
.LBE326:
.LBE321:
	.loc 1 531 0
	lea	rax, [rdi+96]
.LVL157:
	mov	QWORD PTR [rcx], rax
.LBB334:
.LBB333:
.LBB332:
.LBB331:
.LBB330:
	.loc 2 50 0
	mov	QWORD PTR [rdi+104], rcx
.LVL158:
	ret
.LBE330:
.LBE331:
.LBE332:
.LBE333:
.LBE334:
	.cfi_endproc
.LFE92:
	.size	kmem_cache_free, .-kmem_cache_free
	.p2align 4,,15
	.globl	kfree
	.type	kfree, @function
kfree:
.LFB72:
	.loc 1 81 0
	.cfi_startproc
.LVL159:
	push	rbp
	.cfi_def_cfa_offset 16
	.cfi_offset 6, -16
	.loc 1 86 0
	mov	rdx, rsi
	.loc 1 81 0
	mov	rbp, rdi
	push	rbx
	.cfi_def_cfa_offset 24
	.cfi_offset 3, -24
	mov	rbx, rsi
	.loc 1 86 0
	xor	esi, esi
.LVL160:
	.loc 1 81 0
	sub	rsp, 8
	.cfi_def_cfa_offset 32
	.loc 1 86 0
	call	memset
.LVL161:
	mov	eax, OFFSET FLAT:initial_cache
	.loc 1 88 0
	xor	ecx, ecx
.LVL162:
	.p2align 4,,10
	.p2align 3
.L94:
	.loc 1 90 0
	cmp	rbx, QWORD PTR [rax]
	jbe	.L96
	.loc 1 88 0
	add	ecx, 1
.LVL163:
	add	rax, 24
	cmp	ecx, 17
	jne	.L94
	.loc 1 96 0
	add	rsp, 8
	.cfi_remember_state
	.cfi_def_cfa_offset 24
	pop	rbx
	.cfi_def_cfa_offset 16
.LVL164:
	pop	rbp
	.cfi_def_cfa_offset 8
.LVL165:
	ret
.LVL166:
	.p2align 4,,10
	.p2align 3
.L96:
	.cfi_restore_state
	add	rsp, 8
	.cfi_def_cfa_offset 24
	.loc 1 92 0
	lea	rax, [rcx+rcx*8]
	mov	rsi, rbp
	.loc 1 96 0
	pop	rbx
	.cfi_def_cfa_offset 16
.LVL167:
	.loc 1 92 0
	lea	rax, [rcx+rax*2]
	.loc 1 96 0
	pop	rbp
	.cfi_def_cfa_offset 8
.LVL168:
	.loc 1 92 0
	lea	rdi, kmalloc_cache[0+rax*8]
	jmp	kmem_cache_free
.LVL169:
	.cfi_endproc
.LFE72:
	.size	kfree, .-kfree
	.section	.rodata.str1.1
.LC7:
	.string	"[kmem_cache_create] ERROR!\n"
	.text
	.p2align 4,,15
	.globl	kmem_cache_create
	.type	kmem_cache_create, @function
kmem_cache_create:
.LFB80:
	.loc 1 282 0
	.cfi_startproc
.LVL170:
	push	r14
	.cfi_def_cfa_offset 16
	.cfi_offset 14, -16
	mov	r14, r8
	push	r13
	.cfi_def_cfa_offset 24
	.cfi_offset 13, -24
	mov	r13, rdi
.LBB353:
.LBB354:
	.loc 1 273 0
	mov	edi, OFFSET FLAT:kmem_cache_cache
.LVL171:
.LBE354:
.LBE353:
	.loc 1 282 0
	push	r12
	.cfi_def_cfa_offset 32
	.cfi_offset 12, -32
	mov	r12, rsi
.LBB358:
.LBB355:
	.loc 1 273 0
	xor	esi, esi
.LVL172:
.LBE355:
.LBE358:
	.loc 1 282 0
	push	rbp
	.cfi_def_cfa_offset 40
	.cfi_offset 6, -40
	push	rbx
	.cfi_def_cfa_offset 48
	.cfi_offset 3, -48
.LBB359:
.LBB356:
	.loc 1 273 0
	call	kmem_cache_alloc
.LVL173:
.LBE356:
.LBE359:
	.loc 1 290 0
	test	rax, rax
.LBB360:
.LBB357:
	.loc 1 273 0
	mov	rbx, rax
.LBE357:
.LBE360:
	.loc 1 290 0
	je	.L103
.LVL174:
.LBB361:
.LBB362:
	.loc 1 186 0
	lea	rbp, [rax+8]
.LVL175:
	.loc 1 194 0
	cmp	r12, 524287
	.loc 1 187 0
	mov	QWORD PTR [rax], r13
	.loc 1 190 0
	mov	QWORD PTR [rax+120], r12
	.loc 1 191 0
	mov	DWORD PTR [rax+132], 0
.LBB363:
.LBB364:
	.loc 2 40 0
	mov	QWORD PTR [rax+16], rbp
	.loc 2 41 0
	mov	QWORD PTR [rax+8], rbp
.LBE364:
.LBE363:
	.loc 1 194 0
	ja	.L104
	.loc 1 199 0
	mov	rdi, rbx
	call	calc_slab_size
.LVL176:
	.loc 1 201 0
	test	eax, eax
	jne	.L105
.L101:
	.loc 1 209 0
	lea	rax, [rbx+64]
.LVL177:
	.loc 1 207 0
	mov	QWORD PTR [rbx+56], r14
.LBE362:
.LBE361:
.LBB373:
.LBB374:
.LBB375:
.LBB376:
	.loc 2 48 0
	mov	QWORD PTR [rbx+16], OFFSET FLAT:list_cache
.LBE376:
.LBE375:
.LBE374:
.LBE373:
.LBB380:
.LBB371:
.LBB365:
.LBB366:
	.loc 2 40 0
	mov	QWORD PTR [rbx+72], rax
	.loc 2 41 0
	mov	QWORD PTR [rbx+64], rax
.LBE366:
.LBE365:
	.loc 1 210 0
	lea	rax, [rbx+80]
.LVL178:
.LBB367:
.LBB368:
	.loc 2 40 0
	mov	QWORD PTR [rbx+88], rax
	.loc 2 41 0
	mov	QWORD PTR [rbx+80], rax
.LBE368:
.LBE367:
	.loc 1 211 0
	lea	rax, [rbx+96]
.LVL179:
.LBB369:
.LBB370:
	.loc 2 40 0
	mov	QWORD PTR [rbx+104], rax
	.loc 2 41 0
	mov	QWORD PTR [rbx+96], rax
.LVL180:
.LBE370:
.LBE369:
.LBE371:
.LBE380:
.LBB381:
.LBB379:
	.loc 2 60 0
	mov	rax, QWORD PTR list_cache[rip]
.LVL181:
.LBB378:
.LBB377:
	.loc 2 47 0
	mov	QWORD PTR list_cache[rip], rbp
	.loc 2 49 0
	mov	QWORD PTR [rbx+8], rax
	.loc 2 50 0
	mov	QWORD PTR [rax+8], rbp
.LVL182:
.L99:
.LBE377:
.LBE378:
.LBE379:
.LBE381:
	.loc 1 309 0
	mov	rax, rbx
	pop	rbx
	.cfi_remember_state
	.cfi_def_cfa_offset 40
	pop	rbp
	.cfi_def_cfa_offset 32
	pop	r12
	.cfi_def_cfa_offset 24
.LVL183:
	pop	r13
	.cfi_def_cfa_offset 16
.LVL184:
	pop	r14
	.cfi_def_cfa_offset 8
.LVL185:
	ret
.LVL186:
	.p2align 4,,10
	.p2align 3
.L104:
	.cfi_restore_state
.LBB382:
.LBB372:
	.loc 1 196 0
	or	DWORD PTR [rax+48], 1
	.loc 1 199 0
	mov	rdi, rbx
	call	calc_slab_size
.LVL187:
	.loc 1 201 0
	test	eax, eax
	je	.L101
.L105:
	.loc 1 202 0
	mov	edi, OFFSET FLAT:.LC6
	xor	eax, eax
.LVL188:
	call	kprintf
.LVL189:
.LBE372:
.LBE382:
	.loc 1 300 0
	mov	edi, OFFSET FLAT:.LC7
	xor	eax, eax
	call	kprintf
.LVL190:
.LBB383:
.LBB384:
	.loc 1 278 0
	mov	rsi, rbx
	mov	edi, OFFSET FLAT:kmem_cache_cache
.LBE384:
.LBE383:
	.loc 1 302 0
	xor	ebx, ebx
.LVL191:
.LBB386:
.LBB385:
	.loc 1 278 0
	call	kmem_cache_free
.LVL192:
.LBE385:
.LBE386:
	.loc 1 309 0
	mov	rax, rbx
	pop	rbx
	.cfi_remember_state
	.cfi_def_cfa_offset 40
	pop	rbp
	.cfi_def_cfa_offset 32
.LVL193:
	pop	r12
	.cfi_def_cfa_offset 24
.LVL194:
	pop	r13
	.cfi_def_cfa_offset 16
.LVL195:
	pop	r14
	.cfi_def_cfa_offset 8
.LVL196:
	ret
.LVL197:
	.p2align 4,,10
	.p2align 3
.L103:
	.cfi_restore_state
	.loc 1 291 0
	mov	edi, OFFSET FLAT:.LC7
	xor	eax, eax
	call	kprintf
.LVL198:
	.loc 1 292 0
	jmp	.L99
	.cfi_endproc
.LFE80:
	.size	kmem_cache_create, .-kmem_cache_create
	.p2align 4,,15
	.globl	kmem_cache_destroy
	.type	kmem_cache_destroy, @function
kmem_cache_destroy:
.LFB93:
	.loc 1 537 0
	.cfi_startproc
.LVL199:
	push	rbx
	.cfi_def_cfa_offset 16
	.cfi_offset 3, -16
	.loc 1 537 0
	mov	rbx, rdi
	.loc 1 541 0
	lea	rdi, [rdi+64]
.LVL200:
	cmp	rdi, QWORD PTR [rbx+72]
	je	.L107
	.loc 1 543 0
	call	kmem_cache_reap.isra.11
.LVL201:
.L107:
	.loc 1 546 0
	lea	rdi, [rbx+80]
.LVL202:
	cmp	rdi, QWORD PTR [rbx+88]
	je	.L108
	.loc 1 548 0
	call	kmem_cache_reap.isra.11
.LVL203:
.L108:
	.loc 1 550 0
	lea	rdi, [rbx+96]
.LVL204:
	cmp	rdi, QWORD PTR [rbx+104]
	je	.L106
	.loc 1 562 0
	pop	rbx
	.cfi_remember_state
	.cfi_def_cfa_offset 8
.LVL205:
	.loc 1 552 0
	jmp	kmem_cache_reap.isra.11
.LVL206:
	.p2align 4,,10
	.p2align 3
.L106:
	.cfi_restore_state
	.loc 1 562 0
	pop	rbx
	.cfi_def_cfa_offset 8
.LVL207:
	ret
	.cfi_endproc
.LFE93:
	.size	kmem_cache_destroy, .-kmem_cache_destroy
	.local	malloc_lock
	.comm	malloc_lock,1,1
	.comm	list_cache,16,16
	.local	kmem_cache_cache
	.comm	kmem_cache_cache,152,32
	.section	.rodata
	.type	kmem_cache_name, @object
	.size	kmem_cache_name, 11
kmem_cache_name:
	.string	"kmem_cache"
	.align 32
	.type	initial_cache, @object
	.size	initial_cache, 408
initial_cache:
	.quad	8
	.string	"kmalloc-8"
	.zero	5
	.zero	1
	.quad	16
	.string	"kmalloc-16"
	.zero	4
	.zero	1
	.quad	32
	.string	"kmalloc-32"
	.zero	4
	.zero	1
	.quad	64
	.string	"kmalloc-64"
	.zero	4
	.zero	1
	.quad	96
	.string	"kmalloc-96"
	.zero	4
	.zero	1
	.quad	128
	.string	"kmalloc-128"
	.zero	3
	.zero	1
	.quad	192
	.string	"kmalloc-192"
	.zero	3
	.zero	1
	.quad	256
	.string	"kmalloc-256"
	.zero	3
	.zero	1
	.quad	512
	.string	"kmalloc-512"
	.zero	3
	.zero	1
	.quad	1024
	.string	"kmalloc-1024"
	.zero	2
	.zero	1
	.quad	2048
	.string	"kmalloc-2048"
	.zero	2
	.zero	1
	.quad	4096
	.string	"kmalloc-4096"
	.zero	2
	.zero	1
	.quad	8192
	.string	"kmalloc-8192"
	.zero	2
	.zero	1
	.quad	16384
	.string	"kmalloc-16384"
	.zero	1
	.zero	1
	.quad	32768
	.string	"kmalloc-32768"
	.zero	1
	.zero	1
	.quad	65536
	.string	"kmalloc-65536"
	.zero	1
	.zero	1
	.quad	131072
	.string	"kmalloc-131072"
	.zero	1
	.comm	kmalloc_cache,2584,32
	.text
.Letext0:
	.file 3 "../include/string.h"
	.file 4 "../include/system.h"
	.file 5 "../include/mem/alloc.h"
	.file 6 "../include/slab.h"
	.file 7 "../include/drivers/fs.h"
	.file 8 "../include/regs.h"
	.file 9 "../include/task.h"
	.file 10 "../include/smp.h"
	.file 11 "../include/internal/stdio.h"
	.file 12 "../include/mem/phys.h"
	.section	.note.GNU-stack,"",@progbits
